; Function Attrs: nounwind uwtable
define zeroext range(i8 0, 2) i8 @l___private_Std_Time_Duration_0__Std_Time_decEqDuration____x40_Std_Time_Duration___hyg_363_(ptr noundef readonly captures(none) %0, ptr noundef readonly captures(none) %1) local_unnamed_addr #0 {
  %3 = getelementptr inbounds nuw i8, ptr %0, i64 8
  %4 = load ptr, ptr %3, align 8, !tbaa !4
  %5 = getelementptr inbounds nuw i8, ptr %0, i64 16
  %6 = load ptr, ptr %5, align 8, !tbaa !4
  %7 = getelementptr inbounds nuw i8, ptr %1, i64 8
  %8 = load ptr, ptr %7, align 8, !tbaa !4
  %9 = getelementptr inbounds nuw i8, ptr %1, i64 16
  %10 = load ptr, ptr %9, align 8, !tbaa !4
  %11 = ptrtoint ptr %4 to i64
  %12 = ptrtoint ptr %8 to i64
  %13 = and i64 %11, 1
  %14 = and i64 %13, %12
  %or.cond.not.i.i = icmp eq i64 %14, 0
  br i1 %or.cond.not.i.i, label %lean_int_dec_eq.exit, label %15, !prof !15

15:                                               ; preds = %2
  %16 = icmp eq ptr %4, %8
  br i1 %16, label %18, label %27

lean_int_dec_eq.exit:                             ; preds = %2
  %17 = tail call zeroext i1 @lean_int_big_eq(ptr noundef %4, ptr noundef %8) #3
  br i1 %17, label %18, label %27

18:                                               ; preds = %15, %lean_int_dec_eq.exit
  %19 = ptrtoint ptr %6 to i64
  %20 = ptrtoint ptr %10 to i64
  %21 = and i64 %19, 1
  %22 = and i64 %21, %20
  %or.cond.not.i.i11 = icmp eq i64 %22, 0
  br i1 %or.cond.not.i.i11, label %.critedge.i.i13, label %23, !prof !15

23:                                               ; preds = %18
  %24 = icmp eq ptr %6, %10
  br label %lean_int_dec_eq.exit14

.critedge.i.i13:                                  ; preds = %18
  %25 = tail call zeroext i1 @lean_int_big_eq(ptr noundef %6, ptr noundef %10) #3
  br label %lean_int_dec_eq.exit14

lean_int_dec_eq.exit14:                           ; preds = %23, %.critedge.i.i13
  %.0.i.i12 = phi i1 [ %24, %23 ], [ %25, %.critedge.i.i13 ]
  %26 = zext i1 %.0.i.i12 to i8
  br label %27

27:                                               ; preds = %15, %lean_int_dec_eq.exit, %lean_int_dec_eq.exit14
  %.0 = phi i8 [ %26, %lean_int_dec_eq.exit14 ], [ 0, %lean_int_dec_eq.exit ], [ 0, %15 ]
  ret i8 %.0
}